target datalayout = "e-m:e-p270:32:32-p271:32:32-p272:64:64-i64:64-i128:128-f80:128-n8:16:32:64-S128"
target triple = "x86_64-pc-linux-gnu"

; Function Attrs: norecurse uwtable
define internal void @_ZNK5faiss16IndexIVFFastScan22search_dispatch_implemElPKflPfPlRKNS0_15CoarseQuantizedEPKNS_15NormTableScalerEPKNS_19SearchParametersIVFE.omp_outlined.omp.reduction.reduction_func(ptr noundef %0, ptr noundef %1) #24 {
  %3 = alloca ptr, align 8
  %4 = alloca ptr, align 8
  store ptr %0, ptr %3, align 8, !tbaa !190
  store ptr %1, ptr %4, align 8, !tbaa !190
  %5 = load ptr, ptr %3, align 8
  %6 = load ptr, ptr %4, align 8
  %7 = getelementptr inbounds [2 x ptr], ptr %6, i64 0, i64 0
  %8 = load ptr, ptr %7, align 8
  %9 = getelementptr inbounds [2 x ptr], ptr %5, i64 0, i64 0
  %10 = load ptr, ptr %9, align 8
  %11 = getelementptr inbounds [2 x ptr], ptr %6, i64 0, i64 1
  %12 = load ptr, ptr %11, align 8
  %13 = getelementptr inbounds [2 x ptr], ptr %5, i64 0, i64 1
  %14 = load ptr, ptr %13, align 8
  %15 = load i64, ptr %10, align 8, !tbaa !9
  %16 = load i64, ptr %8, align 8, !tbaa !9
  %17 = add i64 %15, %16
  store i64 %17, ptr %10, align 8, !tbaa !9
  %18 = load i64, ptr %14, align 8, !tbaa !9
  %19 = load i64, ptr %12, align 8, !tbaa !9
  %20 = add i64 %18, %19
  store i64 %20, ptr %14, align 8, !tbaa !9
  ret void
}